target datalayout = "e-m:e-p270:32:32-p271:32:32-p272:64:64-i64:64-i128:128-f80:128-n8:16:32:64-S128"
target triple = "x86_64-pc-linux-gnu"

%struct.AVFormatContext = type { ptr, ptr, ptr, ptr, ptr, i32, i32, ptr, i32, ptr, i32, ptr, ptr, i64, i64, i64, i32, i32, i32, i64, i64, ptr, i32, i32, ptr, i32, i32, i32, i32, ptr, i64, i32, i32, %struct.AVIOInterruptCB, i32, i32, i32, i32, i64, i32, i32, i32, i32, i32, i32, i32, i32, i32, i32, i32, i32, i64, i32, i32, i32, i32, i32, ptr, ptr, ptr, ptr, i32, ptr, ptr, ptr, ptr, i32, ptr, ptr, i64, ptr, ptr, ptr, i64 }
%struct.AVIOInterruptCB = type { ptr, ptr }
%struct.MatroskaDemuxContext = type { ptr, ptr, [16 x %struct.MatroskaLevel], i32, i32, i64, i32, i64, double, ptr, ptr, %struct.EbmlBin, %struct.EbmlList, %struct.EbmlList, %struct.EbmlList, %struct.EbmlList, %struct.EbmlList, %struct.EbmlList, i64, ptr, %struct.PacketList, i32, i32, i64, i32, [64 x %struct.MatroskaLevel1Element], i32, %struct.MatroskaCluster, i32, i32, i32 }
%struct.MatroskaLevel = type { i64, i64 }
%struct.EbmlBin = type { i32, ptr, ptr, i64 }
%struct.EbmlList = type { i32, i32, ptr }
%struct.PacketList = type { ptr, ptr }
%struct.MatroskaLevel1Element = type { i64, i32, i32 }
%struct.MatroskaCluster = type { %struct.MatroskaBlock, i64, i64 }
%struct.MatroskaBlock = type { i64, %struct.CountedElement, i64, %struct.EbmlBin, %struct.EbmlList, i64 }
%struct.CountedElement = type { %union.anon.0, i32 }
%union.anon.0 = type { i64 }
%struct.AVPacket = type { ptr, i64, i64, ptr, i32, i32, i32, ptr, i32, i64, i64, ptr, ptr, %struct.AVRational }
%struct.AVRational = type { i32, i32 }
%struct.MatroskaTrack = type { i64, i64, i64, ptr, ptr, %struct.EbmlBin, ptr, double, i64, i64, i64, i64, i64, i64, i64, %struct.CountedElement, i64, %struct.MatroskaTrackVideo, %struct.MatroskaTrackAudio, %struct.MatroskaTrackOperation, %struct.EbmlList, i64, i64, ptr, i64, i32, i32, i64, %struct.EbmlList, [256 x i32], i32 }
%struct.MatroskaTrackVideo = type { double, i64, i64, i64, i64, i64, i64, %struct.EbmlBin, i64, i64, i64, i64, i64, i64, i64, i64, i64, %struct.EbmlList, %struct.MatroskaTrackVideoProjection }
%struct.MatroskaTrackVideoProjection = type { i64, %struct.EbmlBin, double, double, double }
%struct.MatroskaTrackAudio = type { double, double, i64, i64, i32, i32, i32, i32, i32, i32, i64, ptr }
%struct.MatroskaTrackOperation = type { %struct.EbmlList }

@.str.178 = private unnamed_addr constant [33 x i8] c"Cannot append palette to packet\0A\00", align 1

; Function Attrs: nounwind uwtable
define internal i32 @matroska_deliver_packet(ptr noundef %0, ptr noundef %1) #0 {
  %3 = alloca i32, align 4
  %4 = alloca ptr, align 8
  %5 = alloca ptr, align 8
  %6 = alloca ptr, align 8
  %7 = alloca ptr, align 8
  %8 = alloca ptr, align 8
  store ptr %0, ptr %4, align 8, !tbaa !27
  store ptr %1, ptr %5, align 8, !tbaa !61
  %9 = load ptr, ptr %4, align 8, !tbaa !27
  %10 = getelementptr inbounds nuw %struct.MatroskaDemuxContext, ptr %9, i32 0, i32 20
  %11 = getelementptr inbounds nuw %struct.PacketList, ptr %10, i32 0, i32 0
  %12 = load ptr, ptr %11, align 8, !tbaa !206
  %13 = icmp ne ptr %12, null
  br i1 %13, label %14, label %51

14:                                               ; preds = %2
  call void @llvm.lifetime.start.p0(i64 8, ptr %6) #14
  %15 = load ptr, ptr %4, align 8, !tbaa !27
  %16 = getelementptr inbounds nuw %struct.MatroskaDemuxContext, ptr %15, i32 0, i32 12
  %17 = getelementptr inbounds nuw %struct.EbmlList, ptr %16, i32 0, i32 2
  %18 = load ptr, ptr %17, align 8, !tbaa !51
  store ptr %18, ptr %6, align 8, !tbaa !52
  call void @llvm.lifetime.start.p0(i64 8, ptr %7) #14
  %19 = load ptr, ptr %4, align 8, !tbaa !27
  %20 = getelementptr inbounds nuw %struct.MatroskaDemuxContext, ptr %19, i32 0, i32 20
  %21 = load ptr, ptr %5, align 8, !tbaa !61
  %22 = call i32 @avpriv_packet_list_get(ptr noundef %20, ptr noundef %21)
  %23 = load ptr, ptr %6, align 8, !tbaa !52
  %24 = load ptr, ptr %5, align 8, !tbaa !61
  %25 = getelementptr inbounds nuw %struct.AVPacket, ptr %24, i32 0, i32 5
  %26 = load i32, ptr %25, align 4, !tbaa !346
  %27 = sext i32 %26 to i64
  %28 = getelementptr inbounds %struct.MatroskaTrack, ptr %23, i64 %27
  store ptr %28, ptr %7, align 8, !tbaa !52
  %29 = load ptr, ptr %7, align 8, !tbaa !52
  %30 = getelementptr inbounds nuw %struct.MatroskaTrack, ptr %29, i32 0, i32 30
  %31 = load i32, ptr %30, align 8, !tbaa !491
  %32 = icmp ne i32 %31, 0
  br i1 %32, label %33, label %50

33:                                               ; preds = %14
  call void @llvm.lifetime.start.p0(i64 8, ptr %8) #14
  %34 = load ptr, ptr %5, align 8, !tbaa !61
  %35 = call ptr @av_packet_new_side_data(ptr noundef %34, i32 noundef 0, i64 noundef 1024)
  store ptr %35, ptr %8, align 8, !tbaa !44
  %36 = load ptr, ptr %8, align 8, !tbaa !44
  %37 = icmp ne ptr %36, null
  br i1 %37, label %42, label %38

38:                                               ; preds = %33
  %39 = load ptr, ptr %4, align 8, !tbaa !27
  %40 = getelementptr inbounds nuw %struct.MatroskaDemuxContext, ptr %39, i32 0, i32 1
  %41 = load ptr, ptr %40, align 8, !tbaa !79
  call void (ptr, i32, ptr, ...) @av_log(ptr noundef %41, i32 noundef 16, ptr noundef @.str.178)
  br label %47

42:                                               ; preds = %33
  %43 = load ptr, ptr %8, align 8, !tbaa !44
  %44 = load ptr, ptr %7, align 8, !tbaa !52
  %45 = getelementptr inbounds nuw %struct.MatroskaTrack, ptr %44, i32 0, i32 29
  %46 = getelementptr inbounds [256 x i32], ptr %45, i64 0, i64 0
  call void @llvm.memcpy.p0.p0.i64(ptr align 1 %43, ptr align 8 %46, i64 1024, i1 false)
  br label %47

47:                                               ; preds = %42, %38
  %48 = load ptr, ptr %7, align 8, !tbaa !52
  %49 = getelementptr inbounds nuw %struct.MatroskaTrack, ptr %48, i32 0, i32 30
  store i32 0, ptr %49, align 8, !tbaa !491
  call void @llvm.lifetime.end.p0(i64 8, ptr %8) #14
  br label %50

50:                                               ; preds = %47, %14
  store i32 0, ptr %3, align 4
  call void @llvm.lifetime.end.p0(i64 8, ptr %7) #14
  call void @llvm.lifetime.end.p0(i64 8, ptr %6) #14
  br label %52

51:                                               ; preds = %2
  store i32 -1, ptr %3, align 4
  br label %52

52:                                               ; preds = %51, %50
  %53 = load i32, ptr %3, align 4
  ret i32 %53
}

; Function Attrs: alwaysinline nounwind uwtable
define internal i64 @avio_tell(ptr noundef %0) #3 {
  %2 = alloca ptr, align 8
  store ptr %0, ptr %2, align 8, !tbaa !169
  %3 = load ptr, ptr %2, align 8, !tbaa !169
  %4 = call i64 @avio_seek(ptr noundef %3, i64 noundef 0, i32 noundef 1)
  ret i64 %4
}

; Function Attrs: nounwind uwtable
define internal i32 @matroska_read_packet(ptr noundef %0, ptr noundef %1) #0 {
  %3 = alloca i32, align 4
  %4 = alloca ptr, align 8
  %5 = alloca ptr, align 8
  %6 = alloca ptr, align 8
  %7 = alloca i32, align 4
  %8 = alloca i32, align 4
  store ptr %0, ptr %4, align 8, !tbaa !4
  store ptr %1, ptr %5, align 8, !tbaa !61
  call void @llvm.lifetime.start.p0(i64 8, ptr %6) #14
  %9 = load ptr, ptr %4, align 8, !tbaa !4
  %10 = getelementptr inbounds nuw %struct.AVFormatContext, ptr %9, i32 0, i32 3
  %11 = load ptr, ptr %10, align 8, !tbaa !11
  store ptr %11, ptr %6, align 8, !tbaa !27
  call void @llvm.lifetime.start.p0(i64 4, ptr %7) #14
  store i32 0, ptr %7, align 4, !tbaa !9
  %12 = load ptr, ptr %6, align 8, !tbaa !27
  %13 = getelementptr inbounds nuw %struct.MatroskaDemuxContext, ptr %12, i32 0, i32 5
  %14 = load i64, ptr %13, align 8, !tbaa !141
  %15 = icmp eq i64 %14, -1
  br i1 %15, label %16, label %23

16:                                               ; preds = %2
  %17 = load ptr, ptr %4, align 8, !tbaa !4
  %18 = getelementptr inbounds nuw %struct.AVFormatContext, ptr %17, i32 0, i32 4
  %19 = load ptr, ptr %18, align 8, !tbaa !48
  %20 = call i64 @avio_tell(ptr noundef %19)
  %21 = load ptr, ptr %6, align 8, !tbaa !27
  %22 = getelementptr inbounds nuw %struct.MatroskaDemuxContext, ptr %21, i32 0, i32 5
  store i64 %20, ptr %22, align 8, !tbaa !141
  br label %23

23:                                               ; preds = %16, %2
  br label %24

24:                                               ; preds = %57, %23
  %25 = load ptr, ptr %6, align 8, !tbaa !27
  %26 = load ptr, ptr %5, align 8, !tbaa !61
  %27 = call i32 @matroska_deliver_packet(ptr noundef %25, ptr noundef %26)
  %28 = icmp ne i32 %27, 0
  br i1 %28, label %29, label %58

29:                                               ; preds = %24
  %30 = load ptr, ptr %6, align 8, !tbaa !27
  %31 = getelementptr inbounds nuw %struct.MatroskaDemuxContext, ptr %30, i32 0, i32 21
  %32 = load i32, ptr %31, align 8, !tbaa !142
  %33 = icmp ne i32 %32, 0
  br i1 %33, label %34, label %42

34:                                               ; preds = %29
  %35 = load i32, ptr %7, align 4, !tbaa !9
  %36 = icmp slt i32 %35, 0
  br i1 %36, label %37, label %39

37:                                               ; preds = %34
  %38 = load i32, ptr %7, align 4, !tbaa !9
  br label %40

39:                                               ; preds = %34
  br label %40

40:                                               ; preds = %39, %37
  %41 = phi i32 [ %38, %37 ], [ -541478725, %39 ]
  store i32 %41, ptr %3, align 4
  store i32 1, ptr %8, align 4
  br label %59

42:                                               ; preds = %29
  %43 = load ptr, ptr %6, align 8, !tbaa !27
  %44 = call i32 @matroska_parse_cluster(ptr noundef %43)
  %45 = icmp slt i32 %44, 0
  br i1 %45, label %46, label %57

46:                                               ; preds = %42
  %47 = load ptr, ptr %6, align 8, !tbaa !27
  %48 = getelementptr inbounds nuw %struct.MatroskaDemuxContext, ptr %47, i32 0, i32 21
  %49 = load i32, ptr %48, align 8, !tbaa !142
  %50 = icmp ne i32 %49, 0
  br i1 %50, label %57, label %51

51:                                               ; preds = %46
  %52 = load ptr, ptr %6, align 8, !tbaa !27
  %53 = load ptr, ptr %6, align 8, !tbaa !27
  %54 = getelementptr inbounds nuw %struct.MatroskaDemuxContext, ptr %53, i32 0, i32 5
  %55 = load i64, ptr %54, align 8, !tbaa !141
  %56 = call i32 @matroska_resync(ptr noundef %52, i64 noundef %55)
  store i32 %56, ptr %7, align 4, !tbaa !9
  br label %57

57:                                               ; preds = %51, %46, %42
  br label %24, !llvm.loop !143

58:                                               ; preds = %24
  store i32 0, ptr %3, align 4
  store i32 1, ptr %8, align 4
  br label %59

59:                                               ; preds = %58, %40
  call void @llvm.lifetime.end.p0(i64 4, ptr %7) #14
  call void @llvm.lifetime.end.p0(i64 8, ptr %6) #14
  %60 = load i32, ptr %3, align 4
  ret i32 %60
}