; Function Attrs: nounwind uwtable
define internal i32 @matroska_read_packet(ptr noundef readonly captures(none) %0, ptr noundef %1) #0 {
  %3 = getelementptr inbounds nuw i8, ptr %0, i64 24
  %4 = load ptr, ptr %3, align 8, !tbaa !4
  %5 = getelementptr inbounds nuw i8, ptr %4, i64 280
  %6 = load i64, ptr %5, align 8, !tbaa !116
  %7 = icmp eq i64 %6, -1
  br i1 %7, label %8, label %12

8:                                                ; preds = %2
  %9 = getelementptr inbounds nuw i8, ptr %0, i64 32
  %10 = load ptr, ptr %9, align 8, !tbaa !43
  %11 = tail call i64 @avio_seek(ptr noundef %10, i64 noundef 0, i32 noundef 1) #15
  store i64 %11, ptr %5, align 8, !tbaa !116
  br label %12

12:                                               ; preds = %8, %2
  %13 = getelementptr inbounds nuw i8, ptr %4, i64 472
  %14 = load ptr, ptr %13, align 8, !tbaa !117
  %.not.i20 = icmp eq ptr %14, null
  br i1 %.not.i20, label %matroska_deliver_packet.exit.lr.ph, label %._crit_edge

matroska_deliver_packet.exit.lr.ph:               ; preds = %12
  %15 = getelementptr inbounds nuw i8, ptr %4, i64 488
  br label %matroska_deliver_packet.exit

._crit_edge:                                      ; preds = %45, %12
  %16 = getelementptr inbounds nuw i8, ptr %4, i64 368
  %17 = load ptr, ptr %16, align 8, !tbaa !45
  %18 = tail call i32 @avpriv_packet_list_get(ptr noundef nonnull %13, ptr noundef %1) #15
  %19 = getelementptr inbounds nuw i8, ptr %1, i64 36
  %20 = load i32, ptr %19, align 4, !tbaa !373
  %21 = sext i32 %20 to i64
  %22 = getelementptr inbounds %struct.MatroskaTrack, ptr %17, i64 %21
  %23 = getelementptr inbounds nuw i8, ptr %22, i64 1600
  %24 = load i32, ptr %23, align 8, !tbaa !238
  %.not14.i = icmp eq i32 %24, 0
  br i1 %.not14.i, label %matroska_deliver_packet.exit.thread, label %25

25:                                               ; preds = %._crit_edge
  %26 = tail call ptr @av_packet_new_side_data(ptr noundef nonnull %1, i32 noundef 0, i64 noundef 1024) #15
  %.not15.i = icmp eq ptr %26, null
  br i1 %.not15.i, label %27, label %30

27:                                               ; preds = %25
  %28 = getelementptr inbounds nuw i8, ptr %4, i64 8
  %29 = load ptr, ptr %28, align 8, !tbaa !58
  tail call void (ptr, i32, ptr, ...) @av_log(ptr noundef %29, i32 noundef 16, ptr noundef nonnull @.str.178) #15
  br label %32

30:                                               ; preds = %25
  %31 = getelementptr inbounds nuw i8, ptr %22, i64 576
  tail call void @llvm.memcpy.p0.p0.i64(ptr noundef nonnull align 1 dereferenceable(1024) %26, ptr noundef nonnull align 8 dereferenceable(1024) %31, i64 1024, i1 false)
  br label %32

32:                                               ; preds = %30, %27
  store i32 0, ptr %23, align 8, !tbaa !238
  br label %matroska_deliver_packet.exit.thread

matroska_deliver_packet.exit:                     ; preds = %matroska_deliver_packet.exit.lr.ph, %45
  %.021 = phi i32 [ 0, %matroska_deliver_packet.exit.lr.ph ], [ %.1, %45 ]
  %33 = load i32, ptr %15, align 8, !tbaa !374
  %.not14 = icmp eq i32 %33, 0
  br i1 %.not14, label %37, label %34

34:                                               ; preds = %matroska_deliver_packet.exit
  %35 = icmp slt i32 %.021, 0
  %36 = select i1 %35, i32 %.021, i32 -541478725
  br label %matroska_deliver_packet.exit.thread

37:                                               ; preds = %matroska_deliver_packet.exit
  %38 = tail call fastcc i32 @matroska_parse_cluster(ptr noundef nonnull %4)
  %39 = icmp slt i32 %38, 0
  br i1 %39, label %40, label %45

40:                                               ; preds = %37
  %41 = load i32, ptr %15, align 8, !tbaa !374
  %.not15 = icmp eq i32 %41, 0
  br i1 %.not15, label %42, label %45

42:                                               ; preds = %40
  %43 = load i64, ptr %5, align 8, !tbaa !116
  %44 = tail call fastcc i32 @matroska_resync(ptr noundef nonnull %4, i64 noundef %43)
  br label %45

45:                                               ; preds = %42, %40, %37
  %.1 = phi i32 [ %.021, %40 ], [ %44, %42 ], [ %.021, %37 ]
  %46 = load ptr, ptr %13, align 8, !tbaa !117
  %.not.i = icmp eq ptr %46, null
  br i1 %.not.i, label %matroska_deliver_packet.exit, label %._crit_edge, !llvm.loop !375

matroska_deliver_packet.exit.thread:              ; preds = %._crit_edge, %32, %34
  %.013 = phi i32 [ %36, %34 ], [ 0, %32 ], [ 0, %._crit_edge ]
  ret i32 %.013
}